target datalayout = "e-m:e-p270:32:32-p271:32:32-p272:64:64-i64:64-i128:128-f80:128-n8:16:32:64-S128"
target triple = "x86_64-pc-linux-gnu"

%struct.SpGistTypeDesc = type { i32, i16, i8, i8, i8 }
%struct.varattrib_1b = type { i8, [0 x i8] }
%struct.varattrib_1b_e = type { i8, i8, [0 x i8] }
%struct.anon = type { i32, [0 x i8] }

; Function Attrs: nounwind uwtable
define dso_local i32 @SpGistGetInnerTypeSize(ptr noundef %0, i64 noundef %1) #0 {
  %3 = alloca ptr, align 8
  %4 = alloca i64, align 8
  %5 = alloca i32, align 4
  store ptr %0, ptr %3, align 8
  store i64 %1, ptr %4, align 8
  call void @llvm.lifetime.start.p0(i64 4, ptr %5) #7
  %6 = load ptr, ptr %3, align 8
  %7 = getelementptr inbounds nuw %struct.SpGistTypeDesc, ptr %6, i32 0, i32 2
  %8 = load i8, ptr %7, align 2, !range !4, !noundef !5
  %9 = trunc i8 %8 to i1
  br i1 %9, label %10, label %11

10:                                               ; preds = %2
  store i32 8, ptr %5, align 4
  br label %89

11:                                               ; preds = %2
  %12 = load ptr, ptr %3, align 8
  %13 = getelementptr inbounds nuw %struct.SpGistTypeDesc, ptr %12, i32 0, i32 1
  %14 = load i16, ptr %13, align 4
  %15 = sext i16 %14 to i32
  %16 = icmp sgt i32 %15, 0
  br i1 %16, label %17, label %22

17:                                               ; preds = %11
  %18 = load ptr, ptr %3, align 8
  %19 = getelementptr inbounds nuw %struct.SpGistTypeDesc, ptr %18, i32 0, i32 1
  %20 = load i16, ptr %19, align 4
  %21 = sext i16 %20 to i32
  store i32 %21, ptr %5, align 4
  br label %88

22:                                               ; preds = %11
  %23 = load i64, ptr %4, align 8
  %24 = inttoptr i64 %23 to ptr
  %25 = getelementptr inbounds nuw %struct.varattrib_1b, ptr %24, i32 0, i32 0
  %26 = load i8, ptr %25, align 1
  %27 = zext i8 %26 to i32
  %28 = icmp eq i32 %27, 1
  br i1 %28, label %29, label %59

29:                                               ; preds = %22
  %30 = load i64, ptr %4, align 8
  %31 = inttoptr i64 %30 to ptr
  %32 = getelementptr inbounds nuw %struct.varattrib_1b_e, ptr %31, i32 0, i32 1
  %33 = load i8, ptr %32, align 1
  %34 = zext i8 %33 to i32
  %35 = icmp eq i32 %34, 1
  br i1 %35, label %36, label %37

36:                                               ; preds = %29
  br label %56

37:                                               ; preds = %29
  %38 = load i64, ptr %4, align 8
  %39 = inttoptr i64 %38 to ptr
  %40 = getelementptr inbounds nuw %struct.varattrib_1b_e, ptr %39, i32 0, i32 1
  %41 = load i8, ptr %40, align 1
  %42 = zext i8 %41 to i32
  %43 = and i32 %42, -2
  %44 = icmp eq i32 %43, 2
  br i1 %44, label %45, label %46

45:                                               ; preds = %37
  br label %54

46:                                               ; preds = %37
  %47 = load i64, ptr %4, align 8
  %48 = inttoptr i64 %47 to ptr
  %49 = getelementptr inbounds nuw %struct.varattrib_1b_e, ptr %48, i32 0, i32 1
  %50 = load i8, ptr %49, align 1
  %51 = zext i8 %50 to i32
  %52 = icmp eq i32 %51, 18
  %53 = select i1 %52, i64 16, i64 0
  br label %54

54:                                               ; preds = %46, %45
  %55 = phi i64 [ 8, %45 ], [ %53, %46 ]
  br label %56

56:                                               ; preds = %54, %36
  %57 = phi i64 [ 8, %36 ], [ %55, %54 ]
  %58 = add i64 2, %57
  br label %85

59:                                               ; preds = %22
  %60 = load i64, ptr %4, align 8
  %61 = inttoptr i64 %60 to ptr
  %62 = getelementptr inbounds nuw %struct.varattrib_1b, ptr %61, i32 0, i32 0
  %63 = load i8, ptr %62, align 1
  %64 = zext i8 %63 to i32
  %65 = and i32 %64, 1
  %66 = icmp eq i32 %65, 1
  br i1 %66, label %67, label %75

67:                                               ; preds = %59
  %68 = load i64, ptr %4, align 8
  %69 = inttoptr i64 %68 to ptr
  %70 = getelementptr inbounds nuw %struct.varattrib_1b, ptr %69, i32 0, i32 0
  %71 = load i8, ptr %70, align 1
  %72 = zext i8 %71 to i32
  %73 = ashr i32 %72, 1
  %74 = and i32 %73, 127
  br label %82

75:                                               ; preds = %59
  %76 = load i64, ptr %4, align 8
  %77 = inttoptr i64 %76 to ptr
  %78 = getelementptr inbounds nuw %struct.anon, ptr %77, i32 0, i32 0
  %79 = load i32, ptr %78, align 4
  %80 = lshr i32 %79, 2
  %81 = and i32 %80, 1073741823
  br label %82

82:                                               ; preds = %75, %67
  %83 = phi i32 [ %74, %67 ], [ %81, %75 ]
  %84 = zext i32 %83 to i64
  br label %85

85:                                               ; preds = %82, %56
  %86 = phi i64 [ %58, %56 ], [ %84, %82 ]
  %87 = trunc i64 %86 to i32
  store i32 %87, ptr %5, align 4
  br label %88

88:                                               ; preds = %85, %17
  br label %89

89:                                               ; preds = %88, %10
  %90 = load i32, ptr %5, align 4
  %91 = zext i32 %90 to i64
  %92 = add i64 %91, 7
  %93 = and i64 %92, -8
  %94 = trunc i64 %93 to i32
  call void @llvm.lifetime.end.p0(i64 4, ptr %5) #7
  ret i32 %94
}