; Function Attrs: mustprogress nofree norecurse nosync nounwind willreturn memory(read, inaccessiblemem: none) uwtable
define dso_local range(i32 0, 1073741831) i32 @SpGistGetInnerTypeSize(ptr noundef readonly captures(none) %0, i64 noundef %1) local_unnamed_addr #6 {
  %3 = getelementptr inbounds nuw i8, ptr %0, i64 6
  %4 = load i8, ptr %3, align 2, !range !7, !noundef !8
  %5 = trunc nuw i8 %4 to i1
  br i1 %5, label %33, label %6

6:                                                ; preds = %2
  %7 = getelementptr inbounds nuw i8, ptr %0, i64 4
  %8 = load i16, ptr %7, align 4
  %9 = icmp sgt i16 %8, 0
  br i1 %9, label %10, label %12

10:                                               ; preds = %6
  %11 = zext nneg i16 %8 to i32
  br label %33

12:                                               ; preds = %6
  %13 = inttoptr i64 %1 to ptr
  %14 = load i8, ptr %13, align 1
  %15 = zext i8 %14 to i32
  %16 = icmp eq i8 %14, 1
  br i1 %16, label %17, label %26

17:                                               ; preds = %12
  %18 = getelementptr inbounds nuw i8, ptr %13, i64 1
  %19 = load i8, ptr %18, align 1
  %20 = icmp eq i8 %19, 1
  %21 = and i8 %19, -2
  %22 = icmp eq i8 %21, 2
  %or.cond = or i1 %20, %22
  %23 = icmp eq i8 %19, 18
  %24 = select i1 %23, i32 18, i32 2
  %25 = select i1 %or.cond, i32 10, i32 %24
  br label %33

26:                                               ; preds = %12
  %27 = and i32 %15, 1
  %.not = icmp eq i32 %27, 0
  br i1 %.not, label %30, label %28

28:                                               ; preds = %26
  %29 = lshr i32 %15, 1
  br label %33

30:                                               ; preds = %26
  %31 = load i32, ptr %13, align 4
  %32 = lshr i32 %31, 2
  br label %33

33:                                               ; preds = %17, %30, %28, %2, %10
  %.0 = phi i32 [ %11, %10 ], [ 8, %2 ], [ %25, %17 ], [ %29, %28 ], [ %32, %30 ]
  %34 = add nuw nsw i32 %.0, 7
  %35 = and i32 %34, -8
  ret i32 %35
}